target datalayout = "e-m:e-p270:32:32-p271:32:32-p272:64:64-i64:64-i128:128-f80:128-n8:16:32:64-S128"
target triple = "x86_64-pc-linux-gnu"

%struct.H5FD_class_t = type { i32, i32, ptr, i64, i32, ptr, ptr, ptr, ptr, i64, ptr, ptr, ptr, i64, ptr, ptr, ptr, ptr, ptr, ptr, ptr, ptr, ptr, ptr, ptr, ptr, ptr, ptr, ptr, ptr, ptr, ptr, ptr, ptr, ptr, ptr, ptr, ptr, ptr, [7 x i32] }
%struct.H5PL_vfd_key_t = type { i32, %union.anon.1 }
%union.anon.1 = type { ptr }

@H5FD_init_g = external global i8, align 1
@H5_libterm_g = external global i8, align 1
@.str = private unnamed_addr constant [101 x i8] c"generated/home/dtcxzyw/WorkSpace/Projects/compilers/llvm-opt-benchmark/bench/hdf5/hdf5/src/H5FDint.c\00", align 1
@H5E_CANTINIT_g = external global i64, align 8
@H5E_FUNC_g = external global i64, align 8
@.str.6 = private unnamed_addr constant [32 x i8] c"interface initialization failed\00", align 1
@__func__.H5FD_check_plugin_load = private unnamed_addr constant [23 x i8] c"H5FD_check_plugin_load\00", align 1

; Function Attrs: nounwind uwtable
define i32 @H5FD_check_plugin_load(ptr noundef %0, ptr noundef %1, ptr noundef %2) #0 {
  %4 = alloca ptr, align 8
  %5 = alloca ptr, align 8
  %6 = alloca ptr, align 8
  %7 = alloca i32, align 4
  %8 = alloca i8, align 1
  store ptr %0, ptr %4, align 8, !tbaa !76
  store ptr %1, ptr %5, align 8, !tbaa !104
  store ptr %2, ptr %6, align 8, !tbaa !78
  call void @llvm.lifetime.start.p0(i64 4, ptr %7) #8
  store i32 0, ptr %7, align 4, !tbaa !12
  call void @llvm.lifetime.start.p0(i64 1, ptr %8) #8
  store i8 0, ptr %8, align 1, !tbaa !14
  %9 = load i8, ptr @H5FD_init_g, align 1, !tbaa !14, !range !16, !noundef !17
  %10 = trunc i8 %9 to i1
  br i1 %10, label %15, label %11

11:                                               ; preds = %3
  %12 = load i8, ptr @H5_libterm_g, align 1, !tbaa !14, !range !16, !noundef !17
  %13 = trunc i8 %12 to i1
  %14 = xor i1 %13, true
  br label %15

15:                                               ; preds = %11, %3
  %16 = phi i1 [ false, %3 ], [ %14, %11 ]
  %17 = xor i1 %16, true
  %18 = xor i1 %17, true
  %19 = zext i1 %18 to i32
  %20 = sext i32 %19 to i64
  %21 = call i64 @llvm.expect.i64(i64 %20, i64 0)
  %22 = icmp ne i64 %21, 0
  br i1 %22, label %23, label %46

23:                                               ; preds = %15
  store i8 1, ptr @H5FD_init_g, align 1, !tbaa !14
  %24 = call i32 @H5FD__init_package()
  %25 = icmp slt i32 %24, 0
  br i1 %25, label %26, label %45

26:                                               ; preds = %23
  store i8 0, ptr @H5FD_init_g, align 1, !tbaa !14
  br label %27

27:                                               ; preds = %26
  br label %28

28:                                               ; preds = %27
  br label %29

29:                                               ; preds = %28
  %30 = load i64, ptr @H5E_FUNC_g, align 8, !tbaa !10
  %31 = load i64, ptr @H5E_CANTINIT_g, align 8, !tbaa !10
  %32 = call i32 (ptr, ptr, i32, i64, i64, ptr, ...) @H5E_printf_stack(ptr noundef @.str, ptr noundef @__func__.H5FD_check_plugin_load, i32 noundef 3098, i64 noundef %30, i64 noundef %31, ptr noundef @.str.6)
  br label %33

33:                                               ; preds = %29
  br label %34

34:                                               ; preds = %33
  store i8 1, ptr %8, align 1, !tbaa !14
  %35 = load i8, ptr %8, align 1, !tbaa !14, !range !16, !noundef !17
  %36 = trunc i8 %35 to i1
  %37 = zext i1 %36 to i8
  store i8 %37, ptr %8, align 1, !tbaa !14
  br label %38

38:                                               ; preds = %34
  br label %39

39:                                               ; preds = %38
  br label %40

40:                                               ; preds = %39
  store i32 -1, ptr %7, align 4, !tbaa !12
  br label %95

41:                                               ; No predecessors!
  br label %42

42:                                               ; preds = %41
  br label %43

43:                                               ; preds = %42
  br label %44

44:                                               ; preds = %43
  br label %45

45:                                               ; preds = %44, %23
  br label %46

46:                                               ; preds = %45, %15
  %47 = load i8, ptr @H5FD_init_g, align 1, !tbaa !14, !range !16, !noundef !17
  %48 = trunc i8 %47 to i1
  br i1 %48, label %53, label %49

49:                                               ; preds = %46
  %50 = load i8, ptr @H5_libterm_g, align 1, !tbaa !14, !range !16, !noundef !17
  %51 = trunc i8 %50 to i1
  %52 = xor i1 %51, true
  br label %53

53:                                               ; preds = %49, %46
  %54 = phi i1 [ true, %46 ], [ %52, %49 ]
  %55 = xor i1 %54, true
  %56 = xor i1 %55, true
  %57 = zext i1 %56 to i32
  %58 = sext i32 %57 to i64
  %59 = call i64 @llvm.expect.i64(i64 %58, i64 1)
  %60 = icmp ne i64 %59, 0
  br i1 %60, label %61, label %96

61:                                               ; preds = %53
  %62 = load ptr, ptr %5, align 8, !tbaa !104
  %63 = getelementptr inbounds nuw %struct.H5PL_vfd_key_t, ptr %62, i32 0, i32 0
  %64 = load i32, ptr %63, align 8, !tbaa !88
  %65 = icmp eq i32 %64, 0
  br i1 %65, label %66, label %83

66:                                               ; preds = %61
  %67 = load ptr, ptr %4, align 8, !tbaa !76
  %68 = getelementptr inbounds nuw %struct.H5FD_class_t, ptr %67, i32 0, i32 2
  %69 = load ptr, ptr %68, align 8, !tbaa !106
  %70 = icmp ne ptr %69, null
  br i1 %70, label %71, label %82

71:                                               ; preds = %66
  %72 = load ptr, ptr %4, align 8, !tbaa !76
  %73 = getelementptr inbounds nuw %struct.H5FD_class_t, ptr %72, i32 0, i32 2
  %74 = load ptr, ptr %73, align 8, !tbaa !106
  %75 = load ptr, ptr %5, align 8, !tbaa !104
  %76 = getelementptr inbounds nuw %struct.H5PL_vfd_key_t, ptr %75, i32 0, i32 1
  %77 = load ptr, ptr %76, align 8, !tbaa !88
  %78 = call i32 @strcmp(ptr noundef %74, ptr noundef %77) #9
  %79 = icmp ne i32 %78, 0
  br i1 %79, label %82, label %80

80:                                               ; preds = %71
  %81 = load ptr, ptr %6, align 8, !tbaa !78
  store i8 1, ptr %81, align 1, !tbaa !14
  br label %82

82:                                               ; preds = %80, %71, %66
  br label %94

83:                                               ; preds = %61
  %84 = load ptr, ptr %4, align 8, !tbaa !76
  %85 = getelementptr inbounds nuw %struct.H5FD_class_t, ptr %84, i32 0, i32 1
  %86 = load i32, ptr %85, align 4, !tbaa !107
  %87 = load ptr, ptr %5, align 8, !tbaa !104
  %88 = getelementptr inbounds nuw %struct.H5PL_vfd_key_t, ptr %87, i32 0, i32 1
  %89 = load i32, ptr %88, align 8, !tbaa !88
  %90 = icmp eq i32 %86, %89
  br i1 %90, label %91, label %93

91:                                               ; preds = %83
  %92 = load ptr, ptr %6, align 8, !tbaa !78
  store i8 1, ptr %92, align 1, !tbaa !14
  br label %93

93:                                               ; preds = %91, %83
  br label %94

94:                                               ; preds = %93, %82
  br label %95

95:                                               ; preds = %94, %40
  br label %96

96:                                               ; preds = %95, %53
  %97 = load i32, ptr %7, align 4, !tbaa !12
  call void @llvm.lifetime.end.p0(i64 1, ptr %8) #8
  call void @llvm.lifetime.end.p0(i64 4, ptr %7) #8
  ret i32 %97
}