; Function Attrs: nounwind uwtable
define range(i32 -1, 1) i32 @H5FD_check_plugin_load(ptr noundef readonly captures(none) %0, ptr noundef readonly captures(none) %1, ptr noundef writeonly captures(none) %2) local_unnamed_addr #0 {
  %4 = load i8, ptr @H5FD_init_g, align 1, !tbaa !3, !range !7, !noundef !8
  %5 = trunc nuw i8 %4 to i1
  %6 = load i8, ptr @H5_libterm_g, align 1, !range !7
  %7 = trunc nuw i8 %6 to i1
  %8 = select i1 %5, i1 true, i1 %7
  br i1 %8, label %16, label %9, !prof !9

9:                                                ; preds = %3
  store i8 1, ptr @H5FD_init_g, align 1, !tbaa !3
  %10 = tail call i32 @H5FD__init_package() #12
  %11 = icmp slt i32 %10, 0
  br i1 %11, label %12, label %._crit_edge

._crit_edge:                                      ; preds = %9
  %.pre = load i8, ptr @H5FD_init_g, align 1, !tbaa !3, !range !7
  %.pre11 = load i8, ptr @H5_libterm_g, align 1, !range !7
  %.pre12 = trunc nuw i8 %.pre to i1
  %.pre13 = trunc nuw i8 %.pre11 to i1
  br label %16

12:                                               ; preds = %9
  store i8 0, ptr @H5FD_init_g, align 1, !tbaa !3
  %13 = load i64, ptr @H5E_FUNC_g, align 8, !tbaa !10
  %14 = load i64, ptr @H5E_CANTINIT_g, align 8, !tbaa !10
  %15 = tail call i32 (ptr, ptr, i32, i64, i64, ptr, ...) @H5E_printf_stack(ptr noundef nonnull @.str, ptr noundef nonnull @__func__.H5FD_check_plugin_load, i32 noundef 3098, i64 noundef %13, i64 noundef %14, ptr noundef nonnull @.str.6) #12
  br label %37

16:                                               ; preds = %._crit_edge, %3
  %.pre-phi14 = phi i1 [ %.pre13, %._crit_edge ], [ %7, %3 ]
  %.pre-phi = phi i1 [ %.pre12, %._crit_edge ], [ %5, %3 ]
  %17 = xor i1 %.pre-phi14, true
  %18 = select i1 %.pre-phi, i1 true, i1 %17
  br i1 %18, label %19, label %37, !prof !9

19:                                               ; preds = %16
  %20 = load i32, ptr %1, align 8, !tbaa !77
  %21 = icmp eq i32 %20, 0
  br i1 %21, label %22, label %30

22:                                               ; preds = %19
  %23 = getelementptr inbounds nuw i8, ptr %0, i64 8
  %24 = load ptr, ptr %23, align 8, !tbaa !88
  %.not = icmp eq ptr %24, null
  br i1 %.not, label %37, label %25

25:                                               ; preds = %22
  %26 = getelementptr inbounds nuw i8, ptr %1, i64 8
  %27 = load ptr, ptr %26, align 8, !tbaa !77
  %28 = tail call i32 @strcmp(ptr noundef nonnull dereferenceable(1) %24, ptr noundef nonnull dereferenceable(1) %27) #14
  %.not10 = icmp eq i32 %28, 0
  br i1 %.not10, label %29, label %37

29:                                               ; preds = %25
  store i8 1, ptr %2, align 1, !tbaa !3
  br label %37

30:                                               ; preds = %19
  %31 = getelementptr inbounds nuw i8, ptr %0, i64 4
  %32 = load i32, ptr %31, align 4, !tbaa !89
  %33 = getelementptr inbounds nuw i8, ptr %1, i64 8
  %34 = load i32, ptr %33, align 8, !tbaa !77
  %35 = icmp eq i32 %32, %34
  br i1 %35, label %36, label %37

36:                                               ; preds = %30
  store i8 1, ptr %2, align 1, !tbaa !3
  br label %37

37:                                               ; preds = %12, %30, %36, %22, %25, %29, %16
  %.0 = phi i32 [ -1, %12 ], [ 0, %25 ], [ 0, %29 ], [ 0, %22 ], [ 0, %36 ], [ 0, %30 ], [ 0, %16 ]
  ret i32 %.0
}